; Function Attrs: mustprogress nounwind uwtable
define dso_local void @_ZN4llvm10MCStreamer20switchSectionNoPrintEPNS_9MCSectionE(ptr noundef nonnull align 8 dereferenceable(288) %0, ptr noundef %1) unnamed_addr #0 align 2 {
  %3 = getelementptr inbounds nuw i8, ptr %0, i64 120
  %4 = load ptr, ptr %3, align 8
  %5 = tail call noundef i64 @_ZNK4llvm15SmallVectorBaseIjE4sizeEv(ptr noundef nonnull align 8 dereferenceable(16) %3) #23
  %6 = getelementptr inbounds %"struct.std::pair.149", ptr %4, i64 %5
  %7 = getelementptr inbounds i8, ptr %6, i64 -32
  %8 = load ptr, ptr %3, align 8
  %9 = tail call noundef i64 @_ZNK4llvm15SmallVectorBaseIjE4sizeEv(ptr noundef nonnull align 8 dereferenceable(16) %3) #23
  %10 = getelementptr inbounds %"struct.std::pair.149", ptr %8, i64 %9
  %11 = getelementptr inbounds i8, ptr %10, i64 -16
  %12 = load ptr, ptr %7, align 8
  store ptr %12, ptr %11, align 8
  %13 = getelementptr inbounds i8, ptr %6, i64 -24
  %14 = load i32, ptr %13, align 8
  %15 = getelementptr inbounds i8, ptr %10, i64 -8
  store i32 %14, ptr %15, align 8
  %16 = load ptr, ptr %3, align 8
  %17 = tail call noundef i64 @_ZNK4llvm15SmallVectorBaseIjE4sizeEv(ptr noundef nonnull align 8 dereferenceable(16) %3) #23
  %18 = getelementptr inbounds %"struct.std::pair.149", ptr %16, i64 %17
  %19 = getelementptr inbounds i8, ptr %18, i64 -32
  store ptr %1, ptr %19, align 8
  %20 = getelementptr inbounds i8, ptr %18, i64 -24
  store i32 0, ptr %20, align 8
  %21 = getelementptr inbounds nuw i8, ptr %1, i64 56
  %22 = getelementptr inbounds nuw i8, ptr %0, i64 280
  store ptr %21, ptr %22, align 8
  ret void
}